target datalayout = "e-m:e-p270:32:32-p271:32:32-p272:64:64-i64:64-i128:128-f80:128-n8:16:32:64-S128"
target triple = "x86_64-pc-linux-gnu"

%"class.std::__weak_count" = type { ptr }
%"class.duckdb::optional_ptr" = type { ptr }
%"class.duckdb::MetaPipeline" = type { %"class.duckdb::enable_shared_from_this.87", ptr, ptr, %"class.duckdb::optional_ptr.91", %"class.duckdb::optional_ptr", i8, i8, %"class.duckdb::vector.38", %"class.std::unordered_map.92", %"class.duckdb::vector.108", i64, %"class.std::unordered_set", %"class.std::unordered_map.127" }
%"class.duckdb::enable_shared_from_this.87" = type { %"class.duckdb::weak_ptr.88" }
%"class.duckdb::weak_ptr.88" = type { %"class.std::weak_ptr.89" }
%"class.std::weak_ptr.89" = type { %"class.std::__weak_ptr.90" }
%"class.std::__weak_ptr.90" = type { ptr, %"class.std::__weak_count" }
%"class.duckdb::optional_ptr.91" = type { ptr }
%"class.duckdb::vector.38" = type { %"class.std::vector.39" }
%"class.std::vector.39" = type { %"struct.std::_Vector_base.40" }
%"struct.std::_Vector_base.40" = type { %"struct.std::_Vector_base<duckdb::shared_ptr<duckdb::Pipeline>, std::allocator<duckdb::shared_ptr<duckdb::Pipeline>>>::_Vector_impl" }
%"struct.std::_Vector_base<duckdb::shared_ptr<duckdb::Pipeline>, std::allocator<duckdb::shared_ptr<duckdb::Pipeline>>>::_Vector_impl" = type { %"struct.std::_Vector_base<duckdb::shared_ptr<duckdb::Pipeline>, std::allocator<duckdb::shared_ptr<duckdb::Pipeline>>>::_Vector_impl_data" }
%"struct.std::_Vector_base<duckdb::shared_ptr<duckdb::Pipeline>, std::allocator<duckdb::shared_ptr<duckdb::Pipeline>>>::_Vector_impl_data" = type { ptr, ptr, ptr }
%"class.std::unordered_map.92" = type { %"class.std::_Hashtable.93" }
%"class.std::_Hashtable.93" = type { ptr, i64, %"struct.std::__detail::_Hash_node_base", i64, %"struct.std::__detail::_Prime_rehash_policy", ptr }
%"struct.std::__detail::_Hash_node_base" = type { ptr }
%"struct.std::__detail::_Prime_rehash_policy" = type { float, i64 }
%"class.duckdb::vector.108" = type { %"class.std::vector.109" }
%"class.std::vector.109" = type { %"struct.std::_Vector_base.110" }
%"struct.std::_Vector_base.110" = type { %"struct.std::_Vector_base<duckdb::shared_ptr<duckdb::MetaPipeline>, std::allocator<duckdb::shared_ptr<duckdb::MetaPipeline>>>::_Vector_impl" }
%"struct.std::_Vector_base<duckdb::shared_ptr<duckdb::MetaPipeline>, std::allocator<duckdb::shared_ptr<duckdb::MetaPipeline>>>::_Vector_impl" = type { %"struct.std::_Vector_base<duckdb::shared_ptr<duckdb::MetaPipeline>, std::allocator<duckdb::shared_ptr<duckdb::MetaPipeline>>>::_Vector_impl_data" }
%"struct.std::_Vector_base<duckdb::shared_ptr<duckdb::MetaPipeline>, std::allocator<duckdb::shared_ptr<duckdb::MetaPipeline>>>::_Vector_impl_data" = type { ptr, ptr, ptr }
%"class.std::unordered_set" = type { %"class.std::_Hashtable.114" }
%"class.std::_Hashtable.114" = type { ptr, i64, %"struct.std::__detail::_Hash_node_base", i64, %"struct.std::__detail::_Prime_rehash_policy", ptr }
%"class.std::unordered_map.127" = type { %"class.std::_Hashtable.128" }
%"class.std::_Hashtable.128" = type { ptr, i64, %"struct.std::__detail::_Hash_node_base", i64, %"struct.std::__detail::_Prime_rehash_policy", ptr }
%"class.std::reference_wrapper" = type { ptr }
%"class.__gnu_cxx::__normal_iterator.195" = type { ptr }

; Function Attrs: mustprogress nounwind uwtable
define linkonce_odr noundef nonnull align 8 dereferenceable(8) ptr @_ZNK9__gnu_cxx17__normal_iteratorIPKN6duckdb10shared_ptrINS1_12MetaPipelineELb1EEESt6vectorIS4_SaIS4_EEE4baseEv(ptr noundef nonnull align 8 dereferenceable(8) %0) #1 comdat align 2 {
  %2 = alloca ptr, align 8
  store ptr %0, ptr %2, align 8, !tbaa !175
  %3 = load ptr, ptr %2, align 8
  %4 = getelementptr inbounds nuw %"class.__gnu_cxx::__normal_iterator.195", ptr %3, i32 0, i32 0
  ret ptr %4
}

; Function Attrs: mustprogress nounwind uwtable
define linkonce_odr void @_ZN9__gnu_cxx17__normal_iteratorIPKN6duckdb10shared_ptrINS1_12MetaPipelineELb1EEESt6vectorIS4_SaIS4_EEEC2ERKS6_(ptr noundef nonnull align 8 dereferenceable(8) %0, ptr noundef nonnull align 8 dereferenceable(8) %1) unnamed_addr #1 comdat align 2 {
  %3 = alloca ptr, align 8
  %4 = alloca ptr, align 8
  store ptr %0, ptr %3, align 8, !tbaa !175
  store ptr %1, ptr %4, align 8, !tbaa !2550
  %5 = load ptr, ptr %3, align 8
  %6 = getelementptr inbounds nuw %"class.__gnu_cxx::__normal_iterator.195", ptr %5, i32 0, i32 0
  %7 = load ptr, ptr %4, align 8, !tbaa !2550
  %8 = load ptr, ptr %7, align 8, !tbaa !154
  store ptr %8, ptr %6, align 8, !tbaa !177
  ret void
}

; Function Attrs: mustprogress nounwind uwtable
define linkonce_odr noundef ptr @_ZNSt17reference_wrapperIKN6duckdb6vectorINS0_10shared_ptrINS0_12MetaPipelineELb1EEELb1EEEE6_S_funERS6_(ptr noundef nonnull align 8 dereferenceable(24) %0) #1 comdat align 2 {
  %2 = alloca ptr, align 8
  store ptr %0, ptr %2, align 8, !tbaa !133
  %3 = load ptr, ptr %2, align 8, !tbaa !133
  ret ptr %3
}

; Function Attrs: inlinehint mustprogress nounwind uwtable
define linkonce_odr noundef zeroext i1 @_ZN9__gnu_cxxeqIPKN6duckdb10shared_ptrINS1_12MetaPipelineELb1EEESt6vectorIS4_SaIS4_EEEEbRKNS_17__normal_iteratorIT_T0_EESF_(ptr noundef nonnull align 8 dereferenceable(8) %0, ptr noundef nonnull align 8 dereferenceable(8) %1) #3 comdat {
  %3 = alloca ptr, align 8
  %4 = alloca ptr, align 8
  store ptr %0, ptr %3, align 8, !tbaa !175
  store ptr %1, ptr %4, align 8, !tbaa !175
  %5 = load ptr, ptr %3, align 8, !tbaa !175
  %6 = call noundef nonnull align 8 dereferenceable(8) ptr @_ZNK9__gnu_cxx17__normal_iteratorIPKN6duckdb10shared_ptrINS1_12MetaPipelineELb1EEESt6vectorIS4_SaIS4_EEE4baseEv(ptr noundef nonnull align 8 dereferenceable(8) %5) #24
  %7 = load ptr, ptr %6, align 8, !tbaa !154
  %8 = load ptr, ptr %4, align 8, !tbaa !175
  %9 = call noundef nonnull align 8 dereferenceable(8) ptr @_ZNK9__gnu_cxx17__normal_iteratorIPKN6duckdb10shared_ptrINS1_12MetaPipelineELb1EEESt6vectorIS4_SaIS4_EEE4baseEv(ptr noundef nonnull align 8 dereferenceable(8) %8) #24
  %10 = load ptr, ptr %9, align 8, !tbaa !154
  %11 = icmp eq ptr %7, %10
  ret i1 %11
}

; Function Attrs: mustprogress nounwind uwtable
define linkonce_odr ptr @_ZNKSt6vectorIN6duckdb10shared_ptrINS0_12MetaPipelineELb1EEESaIS3_EE3endEv(ptr noundef nonnull align 8 dereferenceable(24) %0) #1 comdat align 2 {
  %2 = alloca %"class.__gnu_cxx::__normal_iterator.195", align 8
  %3 = alloca ptr, align 8
  store ptr %0, ptr %3, align 8, !tbaa !141
  %4 = load ptr, ptr %3, align 8
  %5 = getelementptr inbounds nuw %"struct.std::_Vector_base.110", ptr %4, i32 0, i32 0
  %6 = getelementptr inbounds nuw %"struct.std::_Vector_base<duckdb::shared_ptr<duckdb::MetaPipeline>, std::allocator<duckdb::shared_ptr<duckdb::MetaPipeline>>>::_Vector_impl_data", ptr %5, i32 0, i32 1
  call void @_ZN9__gnu_cxx17__normal_iteratorIPKN6duckdb10shared_ptrINS1_12MetaPipelineELb1EEESt6vectorIS4_SaIS4_EEEC2ERKS6_(ptr noundef nonnull align 8 dereferenceable(8) %2, ptr noundef nonnull align 8 dereferenceable(8) %6) #24
  %7 = getelementptr inbounds nuw %"class.__gnu_cxx::__normal_iterator.195", ptr %2, i32 0, i32 0
  %8 = load ptr, ptr %7, align 8
  ret ptr %8
}

; Function Attrs: mustprogress nounwind uwtable
define linkonce_odr ptr @_ZNKSt6vectorIN6duckdb10shared_ptrINS0_12MetaPipelineELb1EEESaIS3_EE5beginEv(ptr noundef nonnull align 8 dereferenceable(24) %0) #1 comdat align 2 {
  %2 = alloca %"class.__gnu_cxx::__normal_iterator.195", align 8
  %3 = alloca ptr, align 8
  store ptr %0, ptr %3, align 8, !tbaa !141
  %4 = load ptr, ptr %3, align 8
  %5 = getelementptr inbounds nuw %"struct.std::_Vector_base.110", ptr %4, i32 0, i32 0
  %6 = getelementptr inbounds nuw %"struct.std::_Vector_base<duckdb::shared_ptr<duckdb::MetaPipeline>, std::allocator<duckdb::shared_ptr<duckdb::MetaPipeline>>>::_Vector_impl_data", ptr %5, i32 0, i32 0
  call void @_ZN9__gnu_cxx17__normal_iteratorIPKN6duckdb10shared_ptrINS1_12MetaPipelineELb1EEESt6vectorIS4_SaIS4_EEEC2ERKS6_(ptr noundef nonnull align 8 dereferenceable(8) %2, ptr noundef nonnull align 8 dereferenceable(8) %6) #24
  %7 = getelementptr inbounds nuw %"class.__gnu_cxx::__normal_iterator.195", ptr %2, i32 0, i32 0
  %8 = load ptr, ptr %7, align 8
  ret ptr %8
}

; Function Attrs: mustprogress nounwind uwtable
define linkonce_odr noundef nonnull align 8 dereferenceable(24) ptr @_ZNKSt17reference_wrapperIKN6duckdb6vectorINS0_10shared_ptrINS0_12MetaPipelineELb1EEELb1EEEE3getEv(ptr noundef nonnull align 8 dereferenceable(8) %0) #1 comdat align 2 {
  %2 = alloca ptr, align 8
  store ptr %0, ptr %2, align 8, !tbaa !169
  %3 = load ptr, ptr %2, align 8
  %4 = getelementptr inbounds nuw %"class.std::reference_wrapper", ptr %3, i32 0, i32 0
  %5 = load ptr, ptr %4, align 8, !tbaa !171
  ret ptr %5
}

; Function Attrs: mustprogress nounwind uwtable
define linkonce_odr void @_ZNSt17reference_wrapperIKN6duckdb6vectorINS0_10shared_ptrINS0_12MetaPipelineELb1EEELb1EEEEC2IRS5_vPS6_EEOT_(ptr noundef nonnull align 8 dereferenceable(8) %0, ptr noundef nonnull align 8 dereferenceable(24) %1) unnamed_addr #1 comdat align 2 {
  %3 = alloca ptr, align 8
  %4 = alloca ptr, align 8
  store ptr %0, ptr %3, align 8, !tbaa !169
  store ptr %1, ptr %4, align 8, !tbaa !133
  %5 = load ptr, ptr %3, align 8
  %6 = getelementptr inbounds nuw %"class.std::reference_wrapper", ptr %5, i32 0, i32 0
  %7 = load ptr, ptr %4, align 8, !tbaa !133
  %8 = call noundef ptr @_ZNSt17reference_wrapperIKN6duckdb6vectorINS0_10shared_ptrINS0_12MetaPipelineELb1EEELb1EEEE6_S_funERS6_(ptr noundef nonnull align 8 dereferenceable(24) %7) #24
  store ptr %8, ptr %6, align 8, !tbaa !171
  ret void
}

; Function Attrs: mustprogress nounwind uwtable
define linkonce_odr noundef zeroext i1 @_ZNKSt6vectorIN6duckdb10shared_ptrINS0_12MetaPipelineELb1EEESaIS3_EE5emptyEv(ptr noundef nonnull align 8 dereferenceable(24) %0) #1 comdat align 2 {
  %2 = alloca ptr, align 8
  %3 = alloca %"class.__gnu_cxx::__normal_iterator.195", align 8
  %4 = alloca %"class.__gnu_cxx::__normal_iterator.195", align 8
  store ptr %0, ptr %2, align 8, !tbaa !141
  %5 = load ptr, ptr %2, align 8
  call void @llvm.lifetime.start.p0(i64 8, ptr %3) #24
  %6 = call ptr @_ZNKSt6vectorIN6duckdb10shared_ptrINS0_12MetaPipelineELb1EEESaIS3_EE5beginEv(ptr noundef nonnull align 8 dereferenceable(24) %5) #24
  %7 = getelementptr inbounds nuw %"class.__gnu_cxx::__normal_iterator.195", ptr %3, i32 0, i32 0
  store ptr %6, ptr %7, align 8
  call void @llvm.lifetime.start.p0(i64 8, ptr %4) #24
  %8 = call ptr @_ZNKSt6vectorIN6duckdb10shared_ptrINS0_12MetaPipelineELb1EEESaIS3_EE3endEv(ptr noundef nonnull align 8 dereferenceable(24) %5) #24
  %9 = getelementptr inbounds nuw %"class.__gnu_cxx::__normal_iterator.195", ptr %4, i32 0, i32 0
  store ptr %8, ptr %9, align 8
  %10 = call noundef zeroext i1 @_ZN9__gnu_cxxeqIPKN6duckdb10shared_ptrINS1_12MetaPipelineELb1EEESt6vectorIS4_SaIS4_EEEEbRKNS_17__normal_iteratorIT_T0_EESF_(ptr noundef nonnull align 8 dereferenceable(8) %3, ptr noundef nonnull align 8 dereferenceable(8) %4) #24
  call void @llvm.lifetime.end.p0(i64 8, ptr %4) #24
  call void @llvm.lifetime.end.p0(i64 8, ptr %3) #24
  ret i1 %10
}

; Function Attrs: mustprogress uwtable
define noundef nonnull align 8 dereferenceable(280) ptr @_ZN6duckdb12MetaPipeline12GetLastChildEv(ptr noundef nonnull align 8 dereferenceable(280) %0) #0 align 2 {
  %2 = alloca ptr, align 8
  %3 = alloca ptr, align 8
  %4 = alloca %"class.std::reference_wrapper", align 8
  %5 = alloca %"class.std::reference_wrapper", align 8
  store ptr %0, ptr %3, align 8, !tbaa !85
  %6 = load ptr, ptr %3, align 8
  %7 = getelementptr inbounds nuw %"class.duckdb::MetaPipeline", ptr %6, i32 0, i32 9
  %8 = call noundef zeroext i1 @_ZNKSt6vectorIN6duckdb10shared_ptrINS0_12MetaPipelineELb1EEESaIS3_EE5emptyEv(ptr noundef nonnull align 8 dereferenceable(24) %7) #24
  br i1 %8, label %9, label %10

9:                                                ; preds = %1
  store ptr %6, ptr %2, align 8
  br label %28

10:                                               ; preds = %1
  call void @llvm.lifetime.start.p0(i64 8, ptr %4) #24
  %11 = getelementptr inbounds nuw %"class.duckdb::MetaPipeline", ptr %6, i32 0, i32 9
  call void @_ZNSt17reference_wrapperIKN6duckdb6vectorINS0_10shared_ptrINS0_12MetaPipelineELb1EEELb1EEEEC2IRS5_vPS6_EEOT_(ptr noundef nonnull align 8 dereferenceable(8) %4, ptr noundef nonnull align 8 dereferenceable(24) %11) #24
  br label %12

12:                                               ; preds = %19, %10
  %13 = call noundef nonnull align 8 dereferenceable(24) ptr @_ZNKSt17reference_wrapperIKN6duckdb6vectorINS0_10shared_ptrINS0_12MetaPipelineELb1EEELb1EEEE3getEv(ptr noundef nonnull align 8 dereferenceable(8) %4) #24
  %14 = call noundef nonnull align 8 dereferenceable(16) ptr @_ZNK6duckdb6vectorINS_10shared_ptrINS_12MetaPipelineELb1EEELb1EE4backEv(ptr noundef nonnull align 8 dereferenceable(24) %13)
  %15 = call noundef ptr @_ZNK6duckdb10shared_ptrINS_12MetaPipelineELb1EEptEv(ptr noundef nonnull align 8 dereferenceable(16) %14)
  %16 = getelementptr inbounds nuw %"class.duckdb::MetaPipeline", ptr %15, i32 0, i32 9
  %17 = call noundef zeroext i1 @_ZNKSt6vectorIN6duckdb10shared_ptrINS0_12MetaPipelineELb1EEESaIS3_EE5emptyEv(ptr noundef nonnull align 8 dereferenceable(24) %16) #24
  %18 = xor i1 %17, true
  br i1 %18, label %19, label %24

19:                                               ; preds = %12
  call void @llvm.lifetime.start.p0(i64 8, ptr %5) #24
  %20 = call noundef nonnull align 8 dereferenceable(24) ptr @_ZNKSt17reference_wrapperIKN6duckdb6vectorINS0_10shared_ptrINS0_12MetaPipelineELb1EEELb1EEEE3getEv(ptr noundef nonnull align 8 dereferenceable(8) %4) #24
  %21 = call noundef nonnull align 8 dereferenceable(16) ptr @_ZNK6duckdb6vectorINS_10shared_ptrINS_12MetaPipelineELb1EEELb1EE4backEv(ptr noundef nonnull align 8 dereferenceable(24) %20)
  %22 = call noundef ptr @_ZNK6duckdb10shared_ptrINS_12MetaPipelineELb1EEptEv(ptr noundef nonnull align 8 dereferenceable(16) %21)
  %23 = getelementptr inbounds nuw %"class.duckdb::MetaPipeline", ptr %22, i32 0, i32 9
  call void @_ZNSt17reference_wrapperIKN6duckdb6vectorINS0_10shared_ptrINS0_12MetaPipelineELb1EEELb1EEEEC2IRS5_vPS6_EEOT_(ptr noundef nonnull align 8 dereferenceable(8) %5, ptr noundef nonnull align 8 dereferenceable(24) %23) #24
  call void @llvm.memcpy.p0.p0.i64(ptr align 8 %4, ptr align 8 %5, i64 8, i1 false)
  call void @llvm.lifetime.end.p0(i64 8, ptr %5) #24
  br label %12, !llvm.loop !167

24:                                               ; preds = %12
  %25 = call noundef nonnull align 8 dereferenceable(24) ptr @_ZNKSt17reference_wrapperIKN6duckdb6vectorINS0_10shared_ptrINS0_12MetaPipelineELb1EEELb1EEEE3getEv(ptr noundef nonnull align 8 dereferenceable(8) %4) #24
  %26 = call noundef nonnull align 8 dereferenceable(16) ptr @_ZNK6duckdb6vectorINS_10shared_ptrINS_12MetaPipelineELb1EEELb1EE4backEv(ptr noundef nonnull align 8 dereferenceable(24) %25)
  %27 = call noundef nonnull align 8 dereferenceable(280) ptr @_ZNK6duckdb10shared_ptrINS_12MetaPipelineELb1EEdeEv(ptr noundef nonnull align 8 dereferenceable(16) %26)
  store ptr %27, ptr %2, align 8
  call void @llvm.lifetime.end.p0(i64 8, ptr %4) #24
  br label %28

28:                                               ; preds = %24, %9
  %29 = load ptr, ptr %2, align 8
  ret ptr %29
}