; Function Attrs: mustprogress uwtable
define noundef nonnull align 8 dereferenceable(280) ptr @_ZN6duckdb12MetaPipeline12GetLastChildEv(ptr noundef nonnull align 8 dereferenceable(280) %0) local_unnamed_addr #0 align 2 {
  %2 = getelementptr inbounds nuw i8, ptr %0, i64 136
  %3 = load ptr, ptr %2, align 8, !tbaa !150
  %4 = getelementptr inbounds nuw i8, ptr %0, i64 144
  %5 = load ptr, ptr %4, align 8, !tbaa !150
  %6 = icmp eq ptr %3, %5
  br i1 %6, label %26, label %.preheader

.preheader:                                       ; preds = %1
  %7 = tail call noundef nonnull align 8 dereferenceable(16) ptr @_ZNK6duckdb6vectorINS_10shared_ptrINS_12MetaPipelineELb1EEELb1EE4backEv(ptr noundef nonnull align 8 dereferenceable(24) %2)
  %8 = tail call noundef ptr @_ZNK6duckdb10shared_ptrINS_12MetaPipelineELb1EEptEv(ptr noundef nonnull align 8 dereferenceable(16) %7)
  %9 = getelementptr inbounds nuw i8, ptr %8, i64 136
  %10 = load ptr, ptr %9, align 8, !tbaa !150
  %11 = getelementptr inbounds nuw i8, ptr %8, i64 144
  %12 = load ptr, ptr %11, align 8, !tbaa !150
  %13 = icmp eq ptr %10, %12
  br i1 %13, label %._crit_edge, label %.lr.ph

.lr.ph:                                           ; preds = %.preheader, %.lr.ph
  %.sroa.02.05 = phi ptr [ %16, %.lr.ph ], [ %2, %.preheader ]
  %14 = tail call noundef nonnull align 8 dereferenceable(16) ptr @_ZNK6duckdb6vectorINS_10shared_ptrINS_12MetaPipelineELb1EEELb1EE4backEv(ptr noundef nonnull align 8 dereferenceable(24) %.sroa.02.05)
  %15 = tail call noundef ptr @_ZNK6duckdb10shared_ptrINS_12MetaPipelineELb1EEptEv(ptr noundef nonnull align 8 dereferenceable(16) %14)
  %16 = getelementptr inbounds nuw i8, ptr %15, i64 136
  %17 = tail call noundef nonnull align 8 dereferenceable(16) ptr @_ZNK6duckdb6vectorINS_10shared_ptrINS_12MetaPipelineELb1EEELb1EE4backEv(ptr noundef nonnull align 8 dereferenceable(24) %16)
  %18 = tail call noundef ptr @_ZNK6duckdb10shared_ptrINS_12MetaPipelineELb1EEptEv(ptr noundef nonnull align 8 dereferenceable(16) %17)
  %19 = getelementptr inbounds nuw i8, ptr %18, i64 136
  %20 = load ptr, ptr %19, align 8, !tbaa !150
  %21 = getelementptr inbounds nuw i8, ptr %18, i64 144
  %22 = load ptr, ptr %21, align 8, !tbaa !150
  %23 = icmp eq ptr %20, %22
  br i1 %23, label %._crit_edge, label %.lr.ph, !llvm.loop !155

._crit_edge:                                      ; preds = %.lr.ph, %.preheader
  %.sroa.02.0.lcssa = phi ptr [ %2, %.preheader ], [ %16, %.lr.ph ]
  %24 = tail call noundef nonnull align 8 dereferenceable(16) ptr @_ZNK6duckdb6vectorINS_10shared_ptrINS_12MetaPipelineELb1EEELb1EE4backEv(ptr noundef nonnull align 8 dereferenceable(24) %.sroa.02.0.lcssa)
  %25 = tail call noundef nonnull align 8 dereferenceable(280) ptr @_ZNK6duckdb10shared_ptrINS_12MetaPipelineELb1EEdeEv(ptr noundef nonnull align 8 dereferenceable(16) %24)
  br label %26

26:                                               ; preds = %1, %._crit_edge
  %.0 = phi ptr [ %25, %._crit_edge ], [ %0, %1 ]
  ret ptr %.0
}